; Function Attrs: nounwind uwtable
define void @PaPulseAudio_UnLock(ptr noundef %0) local_unnamed_addr #0 {
  %2 = tail call i32 @pa_threaded_mainloop_in_thread(ptr noundef %0) #5
  %.not = icmp eq i32 %2, 0
  br i1 %.not, label %3, label %4

3:                                                ; preds = %1
  tail call void @pa_threaded_mainloop_unlock(ptr noundef %0) #5
  br label %4

4:                                                ; preds = %1, %3
  ret void
}